   1              		.syntax unified
   2              		.cpu cortex-m4
   3              		.fpu softvfp
   4              		.eabi_attribute 20, 1	@ Tag_ABI_FP_denormal
   5              		.eabi_attribute 21, 1	@ Tag_ABI_FP_exceptions
   6              		.eabi_attribute 23, 3	@ Tag_ABI_FP_number_model
   7              		.eabi_attribute 24, 1	@ Tag_ABI_align8_needed
   8              		.eabi_attribute 25, 1	@ Tag_ABI_align8_preserved
   9              		.eabi_attribute 26, 1	@ Tag_ABI_enum_size
  10              		.eabi_attribute 30, 6	@ Tag_ABI_optimization_goals
  11              		.eabi_attribute 34, 1	@ Tag_CPU_unaligned_access
  12              		.eabi_attribute 18, 4	@ Tag_ABI_PCS_wchar_t
  13              		.file	"LED.c"
  14              	@ GNU C (GNU Tools for ARM Embedded Processors) version 4.8.4 20140725 (release) [ARM/embedded-4_8-
  15              	@	compiled by GNU C version 4.7.4, GMP version 4.3.2, MPFR version 2.4.2, MPC version 0.8.1
  16              	@ GGC heuristics: --param ggc-min-expand=100 --param ggc-min-heapsize=131072
  17              	@ options passed:  -I . -I apps -I apps/inc -I apps/src -I apps/src/fonts
  18              	@ -I cmsis_boot -I cmsis_boot/startup -I cmsis_core
  19              	@ -I SAM4S_StdPeriph_Driver -I SAM4S_StdPeriph_Driver/Include
  20              	@ -I SAM4S_StdPeriph_Driver/Include/SAM4S
  21              	@ -I SAM4S_StdPeriph_Driver/Include/SAM4S/component
  22              	@ -I SAM4S_StdPeriph_Driver/Include/SAM4S/instance
  23              	@ -I SAM4S_StdPeriph_Driver/Include/SAM4S/pio
  24              	@ -I SAM4S_StdPeriph_Driver/Source -I SAM4S_StdPeriph_Driver/Source/SAM4S
  25              	@ -I SAM4S_StdPeriph_Driver/Source/SAM4S/include
  26              	@ -I SAM4S_StdPeriph_Driver/Source/SAM4S/source -I user_libs
  27              	@ -I user_libs/inc -I user_libs/src -imultilib armv7e-m
  28              	@ -iprefix d:\armgcc\bin\../lib/gcc/arm-none-eabi/4.8.4/
  29              	@ -isysroot d:\armgcc\bin\../arm-none-eabi -MD out/apps/src/LED.d
  30              	@ -MF out/apps/src/LED.o.dep -MP -MQ out/apps/src/LED.o -D__USES_INITFINI__
  31              	@ -D gcc apps/src/LED.c -mcpu=cortex-m4 -mthumb
  32              	@ -auxbase-strip out/apps/src/LED.o -ggdb3 -O0 -Wall -Wpointer-arith
  33              	@ -Wswitch -Wnested-externs -std=gnu99 -fomit-frame-pointer -fverbose-asm
  34              	@ -funsigned-char
  35              	@ options enabled:  -faggressive-loop-optimizations -fauto-inc-dec
  36              	@ -fbranch-count-reg -fcommon -fdelete-null-pointer-checks -fdwarf2-cfi-asm
  37              	@ -fearly-inlining -feliminate-unused-debug-types -ffunction-cse -fgcse-lm
  38              	@ -fgnu-runtime -fgnu-unique -fident -finline-atomics -fira-hoist-pressure
  39              	@ -fira-share-save-slots -fira-share-spill-slots -fivopts
  40              	@ -fkeep-static-consts -fleading-underscore -fmath-errno
  41              	@ -fmerge-debug-strings -fmove-loop-invariants -fomit-frame-pointer
  42              	@ -fpeephole -fprefetch-loop-arrays -freg-struct-return
  43              	@ -fsched-critical-path-heuristic -fsched-dep-count-heuristic
  44              	@ -fsched-group-heuristic -fsched-interblock -fsched-last-insn-heuristic
  45              	@ -fsched-rank-heuristic -fsched-spec -fsched-spec-insn-heuristic
  46              	@ -fsched-stalled-insns-dep -fshow-column -fsigned-zeros
  47              	@ -fsplit-ivs-in-unroller -fstrict-volatile-bitfields -fsync-libcalls
  48              	@ -ftrapping-math -ftree-coalesce-vars -ftree-cselim -ftree-forwprop
  49              	@ -ftree-loop-if-convert -ftree-loop-im -ftree-loop-ivcanon
  50              	@ -ftree-loop-optimize -ftree-parallelize-loops= -ftree-phiprop -ftree-pta
  51              	@ -ftree-reassoc -ftree-scev-cprop -ftree-slp-vectorize
  52              	@ -ftree-vect-loop-version -funit-at-a-time -fverbose-asm
  53              	@ -fzero-initialized-in-bss -mlittle-endian -mpic-data-is-text-relative
  54              	@ -msched-prolog -mthumb -munaligned-access -mvectorize-with-neon-quad
  55              	
  56              		.text
  57              	.Ltext0:
  58              		.cfi_sections	.debug_frame
  59              		.global	pin_LED0
  60              		.data
  61              		.align	2
  64              	pin_LED0:
  65              	@ mask:
  66 0000 08000000 		.word	8
  67              	@ pio:
  68 0004 00100E40 		.word	1074663424
  69              	@ id:
  70 0008 0C       		.byte	12
  71              	@ type:
  72 0009 05       		.byte	5
  73              	@ attribute:
  74 000a 00       		.byte	0
  75 000b 00       		.space	1
  76              		.text
  77              		.align	2
  78              		.global	LedInit
  79              		.thumb
  80              		.thumb_func
  82              	LedInit:
  83              	.LFB116:
  84              		.file 1 "apps/src/LED.c"
   1:apps/src/LED.c **** /**
   2:apps/src/LED.c ****   ******************************************************************************
   3:apps/src/LED.c ****   * @file     LED.c
   4:apps/src/LED.c ****   * @author   Spas Spasov
   5:apps/src/LED.c ****   * @version  V1.1.0
   6:apps/src/LED.c ****   * @date     05.2013
   7:apps/src/LED.c ****   * @brief    This file provides firmware functions necessary for management of
   8:apps/src/LED.c ****   *           the LCD supported processes.
   9:apps/src/LED.c ****   *
  10:apps/src/LED.c ****   ******************************************************************************
  11:apps/src/LED.c ****   * @attention
  12:apps/src/LED.c ****   *
  13:apps/src/LED.c ****   ******************************************************************************
  14:apps/src/LED.c ****   */
  15:apps/src/LED.c **** 
  16:apps/src/LED.c **** /* Includes ------------------------------------------------------------------*/
  17:apps/src/LED.c **** #include "chip.h"                        /* SAM4S definitions                */
  18:apps/src/LED.c **** #include "LED.h"
  19:apps/src/LED.c **** 
  20:apps/src/LED.c **** /* Private typedef -----------------------------------------------------------*/
  21:apps/src/LED.c **** /* None */
  22:apps/src/LED.c **** 
  23:apps/src/LED.c **** /* Private define ------------------------------------------------------------*/
  24:apps/src/LED.c **** /** Led0 pin */
  25:apps/src/LED.c **** #define PIN_LED_0 {PIO_PB3, PIOB, ID_PIOB, PIO_OUTPUT_0, PIO_DEFAULT}
  26:apps/src/LED.c **** 
  27:apps/src/LED.c **** Pin pin_LED0 = PIN_LED_0;
  28:apps/src/LED.c **** 
  29:apps/src/LED.c **** /* Private macro -------------------------------------------------------------*/
  30:apps/src/LED.c **** 
  31:apps/src/LED.c **** /* Private variables ---------------------------------------------------------*/
  32:apps/src/LED.c **** 
  33:apps/src/LED.c **** /* Private function prototypes -----------------------------------------------*/
  34:apps/src/LED.c **** 
  35:apps/src/LED.c **** /* Public function prototypes ------------------------------------------------*/
  36:apps/src/LED.c **** 
  37:apps/src/LED.c **** /* Private functions ---------------------------------------------------------*/
  38:apps/src/LED.c **** 
  39:apps/src/LED.c **** /* Public functions ----------------------------------------------------------*/
  40:apps/src/LED.c **** 
  41:apps/src/LED.c **** /**
  42:apps/src/LED.c ****   * @brief  This function ...
  43:apps/src/LED.c ****   * @param  None
  44:apps/src/LED.c ****   * @retval None
  45:apps/src/LED.c ****   */
  46:apps/src/LED.c **** void LedInit(void)
  47:apps/src/LED.c **** {
  85              		.loc 1 47 0
  86              		.cfi_startproc
  87              		@ args = 0, pretend = 0, frame = 0
  88              		@ frame_needed = 0, uses_anonymous_args = 0
  89 0000 08B5     		push	{r3, lr}	@
  90              		.cfi_def_cfa_offset 8
  91              		.cfi_offset 3, -8
  92              		.cfi_offset 14, -4
  48:apps/src/LED.c **** 	
  49:apps/src/LED.c **** 	
  50:apps/src/LED.c **** 	PIO_Configure(&pin_LED0, 1);
  93              		.loc 1 50 0
  94 0002 0248     		ldr	r0, .L2	@,
  95 0004 0121     		movs	r1, #1	@,
  96 0006 FFF7FEFF 		bl	PIO_Configure	@
  51:apps/src/LED.c **** }
  97              		.loc 1 51 0
  98 000a 08BD     		pop	{r3, pc}	@
  99              	.L3:
 100              		.align	2
 101              	.L2:
 102 000c 00000000 		.word	pin_LED0
 103              		.cfi_endproc
 104              	.LFE116:
 106              		.align	2
 107              		.global	LedOn
 108              		.thumb
 109              		.thumb_func
 111              	LedOn:
 112              	.LFB117:
  52:apps/src/LED.c **** 
  53:apps/src/LED.c **** 
  54:apps/src/LED.c **** /**
  55:apps/src/LED.c ****   * @brief  This function ...
  56:apps/src/LED.c ****   * @param  None
  57:apps/src/LED.c ****   * @retval None
  58:apps/src/LED.c ****   */
  59:apps/src/LED.c **** void LedOn( void )
  60:apps/src/LED.c **** {
 113              		.loc 1 60 0
 114              		.cfi_startproc
 115              		@ args = 0, pretend = 0, frame = 0
 116              		@ frame_needed = 0, uses_anonymous_args = 0
 117 0010 08B5     		push	{r3, lr}	@
 118              		.cfi_def_cfa_offset 8
 119              		.cfi_offset 3, -8
 120              		.cfi_offset 14, -4
  61:apps/src/LED.c **** 	
  62:apps/src/LED.c **** 	
  63:apps/src/LED.c **** 	PIO_Set(&pin_LED0);
 121              		.loc 1 63 0
 122 0012 0248     		ldr	r0, .L5	@,
 123 0014 FFF7FEFF 		bl	PIO_Set	@
  64:apps/src/LED.c **** }
 124              		.loc 1 64 0
 125 0018 08BD     		pop	{r3, pc}	@
 126              	.L6:
 127 001a 00BF     		.align	2
 128              	.L5:
 129 001c 00000000 		.word	pin_LED0
 130              		.cfi_endproc
 131              	.LFE117:
 133              		.align	2
 134              		.global	LedOff
 135              		.thumb
 136              		.thumb_func
 138              	LedOff:
 139              	.LFB118:
  65:apps/src/LED.c **** 
  66:apps/src/LED.c **** 
  67:apps/src/LED.c **** /**
  68:apps/src/LED.c ****   * @brief  This function ...
  69:apps/src/LED.c ****   * @param  None
  70:apps/src/LED.c ****   * @retval None
  71:apps/src/LED.c ****   */
  72:apps/src/LED.c **** void LedOff( void )
  73:apps/src/LED.c **** {
 140              		.loc 1 73 0
 141              		.cfi_startproc
 142              		@ args = 0, pretend = 0, frame = 0
 143              		@ frame_needed = 0, uses_anonymous_args = 0
 144 0020 08B5     		push	{r3, lr}	@
 145              		.cfi_def_cfa_offset 8
 146              		.cfi_offset 3, -8
 147              		.cfi_offset 14, -4
  74:apps/src/LED.c **** 	
  75:apps/src/LED.c **** 	
  76:apps/src/LED.c **** 	PIO_Clear(&pin_LED0);
 148              		.loc 1 76 0
 149 0022 0248     		ldr	r0, .L8	@,
 150 0024 FFF7FEFF 		bl	PIO_Clear	@
  77:apps/src/LED.c **** }
 151              		.loc 1 77 0
 152 0028 08BD     		pop	{r3, pc}	@
 153              	.L9:
 154 002a 00BF     		.align	2
 155              	.L8:
 156 002c 00000000 		.word	pin_LED0
 157              		.cfi_endproc
 158              	.LFE118:
 160              		.align	2
 161              		.global	LedToggle
 162              		.thumb
 163              		.thumb_func
 165              	LedToggle:
 166              	.LFB119:
  78:apps/src/LED.c **** 
  79:apps/src/LED.c **** 
  80:apps/src/LED.c **** /**
  81:apps/src/LED.c ****   * @brief  This function ...
  82:apps/src/LED.c ****   * @param  None
  83:apps/src/LED.c ****   * @retval None
  84:apps/src/LED.c ****   */
  85:apps/src/LED.c **** void LedToggle( void )
  86:apps/src/LED.c **** {
 167              		.loc 1 86 0
 168              		.cfi_startproc
 169              		@ args = 0, pretend = 0, frame = 0
 170              		@ frame_needed = 0, uses_anonymous_args = 0
 171 0030 08B5     		push	{r3, lr}	@
 172              		.cfi_def_cfa_offset 8
 173              		.cfi_offset 3, -8
 174              		.cfi_offset 14, -4
  87:apps/src/LED.c **** 	
  88:apps/src/LED.c **** 	if( PIO_GetOutputDataStatus(&pin_LED0) )
 175              		.loc 1 88 0
 176 0032 0748     		ldr	r0, .L13	@,
 177 0034 FFF7FEFF 		bl	PIO_GetOutputDataStatus	@
 178 0038 0346     		mov	r3, r0	@ tmp111,
 179 003a 002B     		cmp	r3, #0	@ D.7233,
 180 003c 03D0     		beq	.L11	@,
  89:apps/src/LED.c **** 	{
  90:apps/src/LED.c **** 		PIO_Clear(&pin_LED0);
 181              		.loc 1 90 0
 182 003e 0448     		ldr	r0, .L13	@,
 183 0040 FFF7FEFF 		bl	PIO_Clear	@
 184 0044 02E0     		b	.L10	@
 185              	.L11:
  91:apps/src/LED.c **** 	}
  92:apps/src/LED.c **** 	else
  93:apps/src/LED.c **** 	{
  94:apps/src/LED.c **** 		PIO_Set(&pin_LED0);
 186              		.loc 1 94 0
 187 0046 0248     		ldr	r0, .L13	@,
 188 0048 FFF7FEFF 		bl	PIO_Set	@
 189              	.L10:
  95:apps/src/LED.c **** 	}
  96:apps/src/LED.c **** }
 190              		.loc 1 96 0
 191 004c 08BD     		pop	{r3, pc}	@
 192              	.L14:
 193 004e 00BF     		.align	2
 194              	.L13:
 195 0050 00000000 		.word	pin_LED0
 196              		.cfi_endproc
 197              	.LFE119:
 199              	.Letext0:
 200              		.file 2 "d:\\armgcc\\arm-none-eabi\\include\\machine\\_default_types.h"
 201              		.file 3 "d:\\armgcc\\arm-none-eabi\\include\\stdint.h"
 202              		.file 4 "SAM4S_StdPeriph_Driver/Include/SAM4S/component/pio.h"
 203              		.file 5 "SAM4S_StdPeriph_Driver/Source/SAM4S/include/pio.h"
 204              		.file 6 "cmsis_core/core_cm4.h"